; Function Attrs: mustprogress nofree norecurse nosync nounwind willreturn memory(argmem: read) uwtable
define noundef zeroext i1 @_ZN32pxrInternal_v0_24__pxrReserved__9GfIsCloseERKNS_10GfMatrix4dES2_d(ptr nocapture noundef nonnull readonly align 8 dereferenceable(128) %0, ptr nocapture noundef nonnull readonly align 8 dereferenceable(128) %1, double noundef %2) local_unnamed_addr #6 {
  br label %.preheader

.preheader:                                       ; preds = %3, %17
  %.01116 = phi i64 [ 0, %3 ], [ %18, %17 ]
  %4 = shl nuw nsw i64 %.01116, 2
  %5 = getelementptr inbounds double, ptr %0, i64 %4
  %6 = getelementptr inbounds double, ptr %1, i64 %4
  br label %9

7:                                                ; preds = %9
  %8 = add nuw nsw i64 %.015, 1
  %exitcond.not = icmp eq i64 %8, 4
  br i1 %exitcond.not, label %17, label %9, !llvm.loop !60

9:                                                ; preds = %.preheader, %7
  %.015 = phi i64 [ 0, %.preheader ], [ %8, %7 ]
  %10 = getelementptr inbounds double, ptr %5, i64 %.015
  %11 = load double, ptr %10, align 8
  %12 = getelementptr inbounds double, ptr %6, i64 %.015
  %13 = load double, ptr %12, align 8
  %14 = fsub double %11, %13
  %15 = tail call double @llvm.fabs.f64(double %14)
  %16 = fcmp olt double %15, %2
  br i1 %16, label %7, label %.loopexit

17:                                               ; preds = %7
  %18 = add nuw nsw i64 %.01116, 1
  %exitcond19 = icmp eq i64 %18, 4
  br i1 %exitcond19, label %.loopexit, label %.preheader, !llvm.loop !61

.loopexit:                                        ; preds = %17, %9
  ret i1 %16
}